target datalayout = "e-m:e-p270:32:32-p271:32:32-p272:64:64-i64:64-i128:128-f80:128-n8:16:32:64-S128"
target triple = "x86_64-pc-linux-gnu"

; Function Attrs: mustprogress nounwind uwtable
define i32 @bmcg2_sat_solver_addclause(ptr noundef %0, ptr noundef %1, i32 noundef %2) #0 {
  %4 = alloca ptr, align 8
  %5 = alloca ptr, align 8
  %6 = alloca i32, align 4
  store ptr %0, ptr %4, align 8, !tbaa !30
  store ptr %1, ptr %5, align 8, !tbaa !10
  store i32 %2, ptr %6, align 4, !tbaa !12
  %7 = load ptr, ptr %4, align 8, !tbaa !30
  %8 = load ptr, ptr %5, align 8, !tbaa !10
  %9 = load i32, ptr %6, align 4, !tbaa !12
  %10 = call noundef i32 @_Z25glucose2_solver_addclausePN6Gluco210SimpSolverEPii(ptr noundef %7, ptr noundef %8, i32 noundef %9)
  ret i32 %10
}

; Function Attrs: inlinehint mustprogress nounwind uwtable
define internal noundef i32 @_ZL11Abc_Var2Litii(i32 noundef %0, i32 noundef %1) #4 {
  %3 = alloca i32, align 4
  %4 = alloca i32, align 4
  store i32 %0, ptr %3, align 4, !tbaa !12
  store i32 %1, ptr %4, align 4, !tbaa !12
  %5 = load i32, ptr %3, align 4, !tbaa !12
  %6 = load i32, ptr %3, align 4, !tbaa !12
  %7 = add nsw i32 %5, %6
  %8 = load i32, ptr %4, align 4, !tbaa !12
  %9 = add nsw i32 %7, %8
  ret i32 %9
}

; Function Attrs: mustprogress nounwind uwtable
define i32 @bmcg2_sat_solver_add_and(ptr noundef %0, i32 noundef %1, i32 noundef %2, i32 noundef %3, i32 noundef %4, i32 noundef %5, i32 noundef %6) #0 {
  %8 = alloca i32, align 4
  %9 = alloca ptr, align 8
  %10 = alloca i32, align 4
  %11 = alloca i32, align 4
  %12 = alloca i32, align 4
  %13 = alloca i32, align 4
  %14 = alloca i32, align 4
  %15 = alloca i32, align 4
  %16 = alloca [3 x i32], align 4
  %17 = alloca i32, align 4
  store ptr %0, ptr %9, align 8, !tbaa !30
  store i32 %1, ptr %10, align 4, !tbaa !12
  store i32 %2, ptr %11, align 4, !tbaa !12
  store i32 %3, ptr %12, align 4, !tbaa !12
  store i32 %4, ptr %13, align 4, !tbaa !12
  store i32 %5, ptr %14, align 4, !tbaa !12
  store i32 %6, ptr %15, align 4, !tbaa !12
  call void @llvm.lifetime.start.p0(i64 12, ptr %16) #15
  %18 = load i32, ptr %10, align 4, !tbaa !12
  %19 = load i32, ptr %15, align 4, !tbaa !12
  %20 = icmp ne i32 %19, 0
  %21 = xor i1 %20, true
  %22 = zext i1 %21 to i32
  %23 = call noundef i32 @_ZL11Abc_Var2Litii(i32 noundef %18, i32 noundef %22)
  %24 = getelementptr inbounds [3 x i32], ptr %16, i64 0, i64 0
  store i32 %23, ptr %24, align 4, !tbaa !12
  %25 = load i32, ptr %11, align 4, !tbaa !12
  %26 = load i32, ptr %13, align 4, !tbaa !12
  %27 = call noundef i32 @_ZL11Abc_Var2Litii(i32 noundef %25, i32 noundef %26)
  %28 = getelementptr inbounds [3 x i32], ptr %16, i64 0, i64 1
  store i32 %27, ptr %28, align 4, !tbaa !12
  %29 = load ptr, ptr %9, align 8, !tbaa !30
  %30 = getelementptr inbounds [3 x i32], ptr %16, i64 0, i64 0
  %31 = call i32 @bmcg2_sat_solver_addclause(ptr noundef %29, ptr noundef %30, i32 noundef 2)
  %32 = icmp ne i32 %31, 0
  br i1 %32, label %34, label %33

33:                                               ; preds = %7
  store i32 0, ptr %8, align 4
  store i32 1, ptr %17, align 4
  br label %76

34:                                               ; preds = %7
  %35 = load i32, ptr %10, align 4, !tbaa !12
  %36 = load i32, ptr %15, align 4, !tbaa !12
  %37 = icmp ne i32 %36, 0
  %38 = xor i1 %37, true
  %39 = zext i1 %38 to i32
  %40 = call noundef i32 @_ZL11Abc_Var2Litii(i32 noundef %35, i32 noundef %39)
  %41 = getelementptr inbounds [3 x i32], ptr %16, i64 0, i64 0
  store i32 %40, ptr %41, align 4, !tbaa !12
  %42 = load i32, ptr %12, align 4, !tbaa !12
  %43 = load i32, ptr %14, align 4, !tbaa !12
  %44 = call noundef i32 @_ZL11Abc_Var2Litii(i32 noundef %42, i32 noundef %43)
  %45 = getelementptr inbounds [3 x i32], ptr %16, i64 0, i64 1
  store i32 %44, ptr %45, align 4, !tbaa !12
  %46 = load ptr, ptr %9, align 8, !tbaa !30
  %47 = getelementptr inbounds [3 x i32], ptr %16, i64 0, i64 0
  %48 = call i32 @bmcg2_sat_solver_addclause(ptr noundef %46, ptr noundef %47, i32 noundef 2)
  %49 = icmp ne i32 %48, 0
  br i1 %49, label %51, label %50

50:                                               ; preds = %34
  store i32 0, ptr %8, align 4
  store i32 1, ptr %17, align 4
  br label %76

51:                                               ; preds = %34
  %52 = load i32, ptr %10, align 4, !tbaa !12
  %53 = load i32, ptr %15, align 4, !tbaa !12
  %54 = call noundef i32 @_ZL11Abc_Var2Litii(i32 noundef %52, i32 noundef %53)
  %55 = getelementptr inbounds [3 x i32], ptr %16, i64 0, i64 0
  store i32 %54, ptr %55, align 4, !tbaa !12
  %56 = load i32, ptr %11, align 4, !tbaa !12
  %57 = load i32, ptr %13, align 4, !tbaa !12
  %58 = icmp ne i32 %57, 0
  %59 = xor i1 %58, true
  %60 = zext i1 %59 to i32
  %61 = call noundef i32 @_ZL11Abc_Var2Litii(i32 noundef %56, i32 noundef %60)
  %62 = getelementptr inbounds [3 x i32], ptr %16, i64 0, i64 1
  store i32 %61, ptr %62, align 4, !tbaa !12
  %63 = load i32, ptr %12, align 4, !tbaa !12
  %64 = load i32, ptr %14, align 4, !tbaa !12
  %65 = icmp ne i32 %64, 0
  %66 = xor i1 %65, true
  %67 = zext i1 %66 to i32
  %68 = call noundef i32 @_ZL11Abc_Var2Litii(i32 noundef %63, i32 noundef %67)
  %69 = getelementptr inbounds [3 x i32], ptr %16, i64 0, i64 2
  store i32 %68, ptr %69, align 4, !tbaa !12
  %70 = load ptr, ptr %9, align 8, !tbaa !30
  %71 = getelementptr inbounds [3 x i32], ptr %16, i64 0, i64 0
  %72 = call i32 @bmcg2_sat_solver_addclause(ptr noundef %70, ptr noundef %71, i32 noundef 3)
  %73 = icmp ne i32 %72, 0
  br i1 %73, label %75, label %74

74:                                               ; preds = %51
  store i32 0, ptr %8, align 4
  store i32 1, ptr %17, align 4
  br label %76

75:                                               ; preds = %51
  store i32 1, ptr %8, align 4
  store i32 1, ptr %17, align 4
  br label %76

76:                                               ; preds = %75, %74, %50, %33
  call void @llvm.lifetime.end.p0(i64 12, ptr %16) #15
  %77 = load i32, ptr %8, align 4
  ret i32 %77
}