; Function Attrs: mustprogress nounwind uwtable
define range(i32 0, 2) i32 @bmcg2_sat_solver_add_and(ptr noundef %0, i32 noundef %1, i32 noundef %2, i32 noundef %3, i32 noundef %4, i32 noundef %5, i32 noundef %6) local_unnamed_addr #0 {
  %8 = alloca [3 x i32], align 4
  call void @llvm.lifetime.start.p0(i64 12, ptr nonnull %8) #30
  %.not = icmp eq i32 %6, 0
  %9 = zext i1 %.not to i32
  %10 = shl nsw i32 %1, 1
  %11 = or disjoint i32 %10, %9
  store i32 %11, ptr %8, align 4, !tbaa !6
  %12 = shl nsw i32 %2, 1
  %13 = add nsw i32 %4, %12
  %14 = getelementptr inbounds nuw i8, ptr %8, i64 4
  store i32 %13, ptr %14, align 4, !tbaa !6
  %15 = call noundef range(i32 0, 2) i32 @_Z25glucose2_solver_addclausePN6Gluco210SimpSolverEPii(ptr noundef %0, ptr noundef nonnull readonly %8, i32 noundef 2)
  %.not17 = icmp eq i32 %15, 0
  br i1 %.not17, label %28, label %16

16:                                               ; preds = %7
  store i32 %11, ptr %8, align 4, !tbaa !6
  %17 = shl nsw i32 %3, 1
  %18 = add nsw i32 %5, %17
  store i32 %18, ptr %14, align 4, !tbaa !6
  %19 = call noundef range(i32 0, 2) i32 @_Z25glucose2_solver_addclausePN6Gluco210SimpSolverEPii(ptr noundef %0, ptr noundef nonnull readonly %8, i32 noundef 2)
  %.not18 = icmp eq i32 %19, 0
  br i1 %.not18, label %28, label %20

20:                                               ; preds = %16
  %21 = add nsw i32 %6, %10
  store i32 %21, ptr %8, align 4, !tbaa !6
  %.not19 = icmp eq i32 %4, 0
  %22 = zext i1 %.not19 to i32
  %23 = or disjoint i32 %12, %22
  store i32 %23, ptr %14, align 4, !tbaa !6
  %.not20 = icmp eq i32 %5, 0
  %24 = zext i1 %.not20 to i32
  %25 = or disjoint i32 %17, %24
  %26 = getelementptr inbounds nuw i8, ptr %8, i64 8
  store i32 %25, ptr %26, align 4, !tbaa !6
  %27 = call noundef range(i32 0, 2) i32 @_Z25glucose2_solver_addclausePN6Gluco210SimpSolverEPii(ptr noundef %0, ptr noundef nonnull readonly %8, i32 noundef 3)
  br label %28

28:                                               ; preds = %20, %16, %7
  %.0 = phi i32 [ 0, %7 ], [ 0, %16 ], [ %27, %20 ]
  call void @llvm.lifetime.end.p0(i64 12, ptr nonnull %8) #30
  ret i32 %.0
}